target datalayout = "e-m:e-p270:32:32-p271:32:32-p272:64:64-i64:64-i128:128-f80:128-n8:16:32:64-S128"
target triple = "x86_64-pc-linux-gnu"

%struct.lock_file = type { ptr }

@.str.46 = private unnamed_addr constant [1 x i8] zeroinitializer, align 1
@.str.86 = private unnamed_addr constant [2 x i8] c"\0A\00", align 1
@git_gettext_enabled = external global i32, align 4
@.str.310 = private unnamed_addr constant [20 x i8] c"could not lock '%s'\00", align 1
@.str.311 = private unnamed_addr constant [24 x i8] c"could not write to '%s'\00", align 1
@.str.312 = private unnamed_addr constant [24 x i8] c"failed to finalize '%s'\00", align 1
@.str.461 = private unnamed_addr constant [28 x i8] c"could not write eol to '%s'\00", align 1

; Function Attrs: inlinehint nounwind uwtable
define internal i32 @hold_lock_file_for_update_timeout(ptr noundef %0, ptr noundef %1, i32 noundef %2, i64 noundef %3) #1 {
  %5 = alloca ptr, align 8
  %6 = alloca ptr, align 8
  %7 = alloca i32, align 4
  %8 = alloca i64, align 8
  store ptr %0, ptr %5, align 8, !tbaa !327
  store ptr %1, ptr %6, align 8, !tbaa !4
  store i32 %2, ptr %7, align 4, !tbaa !29
  store i64 %3, ptr %8, align 8, !tbaa !43
  %9 = load ptr, ptr %5, align 8, !tbaa !327
  %10 = load ptr, ptr %6, align 8, !tbaa !4
  %11 = load i32, ptr %7, align 4, !tbaa !29
  %12 = load i64, ptr %8, align 8, !tbaa !43
  %13 = call i32 @hold_lock_file_for_update_timeout_mode(ptr noundef %9, ptr noundef %10, i32 noundef %11, i64 noundef %12, i32 noundef 438)
  ret i32 %13
}

; Function Attrs: inlinehint nounwind uwtable
define internal i32 @rollback_lock_file(ptr noundef %0) #1 {
  %2 = alloca ptr, align 8
  store ptr %0, ptr %2, align 8, !tbaa !327
  %3 = load ptr, ptr %2, align 8, !tbaa !327
  %4 = getelementptr inbounds nuw %struct.lock_file, ptr %3, i32 0, i32 0
  %5 = call i32 @delete_tempfile(ptr noundef %4)
  ret i32 %5
}

; Function Attrs: inlinehint nounwind uwtable
define internal i32 @const_error() #1 {
  ret i32 -1
}

; Function Attrs: inlinehint nounwind uwtable
define internal ptr @_(ptr noundef %0) #1 {
  %2 = alloca ptr, align 8
  %3 = alloca ptr, align 8
  store ptr %0, ptr %3, align 8, !tbaa !4
  %4 = load ptr, ptr %3, align 8, !tbaa !4
  %5 = load i8, ptr %4, align 1, !tbaa !30
  %6 = icmp ne i8 %5, 0
  br i1 %6, label %8, label %7

7:                                                ; preds = %1
  store ptr @.str.46, ptr %2, align 8
  br label %16

8:                                                ; preds = %1
  %9 = load i32, ptr @git_gettext_enabled, align 4, !tbaa !29
  %10 = icmp ne i32 %9, 0
  br i1 %10, label %13, label %11

11:                                               ; preds = %8
  %12 = load ptr, ptr %3, align 8, !tbaa !4
  store ptr %12, ptr %2, align 8
  br label %16

13:                                               ; preds = %8
  %14 = load ptr, ptr %3, align 8, !tbaa !4
  %15 = call ptr @dcgettext(ptr noundef null, ptr noundef %14, i32 noundef 5) #11
  store ptr %15, ptr %2, align 8
  br label %16

16:                                               ; preds = %13, %11, %7
  %17 = load ptr, ptr %2, align 8
  ret ptr %17
}

; Function Attrs: inlinehint nounwind uwtable
define internal i32 @hold_lock_file_for_update(ptr noundef %0, ptr noundef %1, i32 noundef %2) #1 {
  %4 = alloca ptr, align 8
  %5 = alloca ptr, align 8
  %6 = alloca i32, align 4
  store ptr %0, ptr %4, align 8, !tbaa !327
  store ptr %1, ptr %5, align 8, !tbaa !4
  store i32 %2, ptr %6, align 4, !tbaa !29
  %7 = load ptr, ptr %4, align 8, !tbaa !327
  %8 = load ptr, ptr %5, align 8, !tbaa !4
  %9 = load i32, ptr %6, align 4, !tbaa !29
  %10 = call i32 @hold_lock_file_for_update_timeout(ptr noundef %7, ptr noundef %8, i32 noundef %9, i64 noundef 0)
  ret i32 %10
}

; Function Attrs: nounwind uwtable
define internal i32 @write_message(ptr noundef %0, i64 noundef %1, ptr noundef %2, i32 noundef %3) #0 {
  %5 = alloca i32, align 4
  %6 = alloca ptr, align 8
  %7 = alloca i64, align 8
  %8 = alloca ptr, align 8
  %9 = alloca i32, align 4
  %10 = alloca %struct.lock_file, align 8
  %11 = alloca i32, align 4
  %12 = alloca i32, align 4
  store ptr %0, ptr %6, align 8, !tbaa !23
  store i64 %1, ptr %7, align 8, !tbaa !43
  store ptr %2, ptr %8, align 8, !tbaa !4
  store i32 %3, ptr %9, align 4, !tbaa !29
  call void @llvm.lifetime.start.p0(i64 8, ptr %10) #11
  call void @llvm.memset.p0.i64(ptr align 8 %10, i8 0, i64 8, i1 false)
  call void @llvm.lifetime.start.p0(i64 4, ptr %11) #11
  %13 = load ptr, ptr %8, align 8, !tbaa !4
  %14 = call i32 @hold_lock_file_for_update(ptr noundef %10, ptr noundef %13, i32 noundef 0)
  store i32 %14, ptr %11, align 4, !tbaa !29
  %15 = load i32, ptr %11, align 4, !tbaa !29
  %16 = icmp slt i32 %15, 0
  br i1 %16, label %17, label %22

17:                                               ; preds = %4
  %18 = call ptr @_(ptr noundef @.str.310)
  %19 = load ptr, ptr %8, align 8, !tbaa !4
  %20 = call i32 (ptr, ...) @error_errno(ptr noundef %18, ptr noundef %19)
  %21 = call i32 @const_error()
  store i32 %21, ptr %5, align 4
  store i32 1, ptr %12, align 4
  br label %56

22:                                               ; preds = %4
  %23 = load i32, ptr %11, align 4, !tbaa !29
  %24 = load ptr, ptr %6, align 8, !tbaa !23
  %25 = load i64, ptr %7, align 8, !tbaa !43
  %26 = call i64 @write_in_full(i32 noundef %23, ptr noundef %24, i64 noundef %25)
  %27 = icmp slt i64 %26, 0
  br i1 %27, label %28, label %34

28:                                               ; preds = %22
  %29 = call ptr @_(ptr noundef @.str.311)
  %30 = load ptr, ptr %8, align 8, !tbaa !4
  %31 = call i32 (ptr, ...) @error_errno(ptr noundef %29, ptr noundef %30)
  %32 = call i32 @const_error()
  %33 = call i32 @rollback_lock_file(ptr noundef %10)
  store i32 -1, ptr %5, align 4
  store i32 1, ptr %12, align 4
  br label %56

34:                                               ; preds = %22
  %35 = load i32, ptr %9, align 4, !tbaa !29
  %36 = icmp ne i32 %35, 0
  br i1 %36, label %37, label %47

37:                                               ; preds = %34
  %38 = load i32, ptr %11, align 4, !tbaa !29
  %39 = call i64 @write(i32 noundef %38, ptr noundef @.str.86, i64 noundef 1)
  %40 = icmp slt i64 %39, 0
  br i1 %40, label %41, label %47

41:                                               ; preds = %37
  %42 = call ptr @_(ptr noundef @.str.461)
  %43 = load ptr, ptr %8, align 8, !tbaa !4
  %44 = call i32 (ptr, ...) @error_errno(ptr noundef %42, ptr noundef %43)
  %45 = call i32 @const_error()
  %46 = call i32 @rollback_lock_file(ptr noundef %10)
  store i32 -1, ptr %5, align 4
  store i32 1, ptr %12, align 4
  br label %56

47:                                               ; preds = %37, %34
  %48 = call i32 @commit_lock_file(ptr noundef %10)
  %49 = icmp slt i32 %48, 0
  br i1 %49, label %50, label %55

50:                                               ; preds = %47
  %51 = call ptr @_(ptr noundef @.str.312)
  %52 = load ptr, ptr %8, align 8, !tbaa !4
  %53 = call i32 (ptr, ...) @error(ptr noundef %51, ptr noundef %52)
  %54 = call i32 @const_error()
  store i32 %54, ptr %5, align 4
  store i32 1, ptr %12, align 4
  br label %56

55:                                               ; preds = %47
  store i32 0, ptr %5, align 4
  store i32 1, ptr %12, align 4
  br label %56

56:                                               ; preds = %55, %50, %41, %28, %17
  call void @llvm.lifetime.end.p0(i64 4, ptr %11) #11
  call void @llvm.lifetime.end.p0(i64 8, ptr %10) #11
  %57 = load i32, ptr %5, align 4
  ret i32 %57
}