; Function Attrs: nounwind uwtable
define internal fastcc range(i32 -1, 1) i32 @write_message(ptr noundef %0, i64 noundef %1, ptr noundef %2, i32 noundef range(i32 0, 2) %3) unnamed_addr #0 {
  %5 = alloca %struct.lock_file, align 8
  call void @llvm.lifetime.start.p0(i64 8, ptr nonnull %5) #20
  store i64 0, ptr %5, align 8
  %6 = call i32 @hold_lock_file_for_update_timeout_mode(ptr noundef nonnull %5, ptr noundef %2, i32 noundef range(i32 0, 5) 0, i64 noundef 0, i32 noundef 438) #20
  %7 = icmp slt i32 %6, 0
  br i1 %7, label %8, label %13

8:                                                ; preds = %4
  %9 = load i32, ptr @git_gettext_enabled, align 4, !tbaa !21
  %.not4.i = icmp eq i32 %9, 0
  br i1 %.not4.i, label %_.exit, label %10

10:                                               ; preds = %8
  %11 = call ptr @dcgettext(ptr noundef null, ptr noundef nonnull @.str.310, i32 noundef 5) #20
  br label %_.exit

_.exit:                                           ; preds = %8, %10
  %.0.i = phi ptr [ %11, %10 ], [ @.str.310, %8 ]
  %12 = call i32 (ptr, ...) @error_errno(ptr noundef %.0.i, ptr noundef %2) #20
  br label %40

13:                                               ; preds = %4
  %14 = call i64 @write_in_full(i32 noundef %6, ptr noundef %0, i64 noundef %1) #20
  %15 = icmp slt i64 %14, 0
  br i1 %15, label %16, label %22

16:                                               ; preds = %13
  %17 = load i32, ptr @git_gettext_enabled, align 4, !tbaa !21
  %.not4.i12 = icmp eq i32 %17, 0
  br i1 %.not4.i12, label %_.exit14, label %18

18:                                               ; preds = %16
  %19 = call ptr @dcgettext(ptr noundef null, ptr noundef nonnull @.str.311, i32 noundef 5) #20
  br label %_.exit14

_.exit14:                                         ; preds = %16, %18
  %.0.i13 = phi ptr [ %19, %18 ], [ @.str.311, %16 ]
  %20 = call i32 (ptr, ...) @error_errno(ptr noundef %.0.i13, ptr noundef %2) #20
  %21 = call i32 @delete_tempfile(ptr noundef nonnull %5) #20
  br label %40

22:                                               ; preds = %13
  %.not = icmp eq i32 %3, 0
  br i1 %.not, label %32, label %23

23:                                               ; preds = %22
  %24 = call i64 @write(i32 noundef %6, ptr noundef nonnull @.str.86, i64 noundef 1) #20
  %25 = icmp slt i64 %24, 0
  br i1 %25, label %26, label %32

26:                                               ; preds = %23
  %27 = load i32, ptr @git_gettext_enabled, align 4, !tbaa !21
  %.not4.i15 = icmp eq i32 %27, 0
  br i1 %.not4.i15, label %_.exit17, label %28

28:                                               ; preds = %26
  %29 = call ptr @dcgettext(ptr noundef null, ptr noundef nonnull @.str.461, i32 noundef 5) #20
  br label %_.exit17

_.exit17:                                         ; preds = %26, %28
  %.0.i16 = phi ptr [ %29, %28 ], [ @.str.461, %26 ]
  %30 = call i32 (ptr, ...) @error_errno(ptr noundef %.0.i16, ptr noundef %2) #20
  %31 = call i32 @delete_tempfile(ptr noundef nonnull %5) #20
  br label %40

32:                                               ; preds = %23, %22
  %33 = call i32 @commit_lock_file(ptr noundef nonnull %5) #20
  %34 = icmp slt i32 %33, 0
  br i1 %34, label %35, label %40

35:                                               ; preds = %32
  %36 = load i32, ptr @git_gettext_enabled, align 4, !tbaa !21
  %.not4.i18 = icmp eq i32 %36, 0
  br i1 %.not4.i18, label %_.exit20, label %37

37:                                               ; preds = %35
  %38 = call ptr @dcgettext(ptr noundef null, ptr noundef nonnull @.str.312, i32 noundef 5) #20
  br label %_.exit20

_.exit20:                                         ; preds = %35, %37
  %.0.i19 = phi ptr [ %38, %37 ], [ @.str.312, %35 ]
  %39 = call i32 (ptr, ...) @error(ptr noundef %.0.i19, ptr noundef %2) #20
  br label %40

40:                                               ; preds = %32, %_.exit20, %_.exit17, %_.exit14, %_.exit
  %.0 = phi i32 [ -1, %_.exit ], [ -1, %_.exit14 ], [ -1, %_.exit17 ], [ -1, %_.exit20 ], [ 0, %32 ]
  call void @llvm.lifetime.end.p0(i64 8, ptr nonnull %5) #20
  ret i32 %.0
}